; ModuleID = 'source-C-CXX/39/133.c'
source_filename = "source-C-CXX/39/133.c"
target datalayout = "e-m:e-p270:32:32-p271:32:32-p272:64:64-i64:64-f80:128-n8:16:32:64-S128"
target triple = "x86_64-pc-linux-gnu"

@.str = private unnamed_addr constant [4 x i8] c"%lf\00", align 1
@.str.1 = private unnamed_addr constant [14 x i8] c"Invalid input\00", align 1
@.str.2 = private unnamed_addr constant [5 x i8] c"%.4f\00", align 1

; Function Attrs: nofree nounwind sspstrong uwtable
define dso_local i32 @main(i32 %0, i8** nocapture readnone %1) local_unnamed_addr #0 {
  %3 = alloca double, align 8
  %4 = alloca double, align 8
  %5 = alloca double, align 8
  %6 = alloca double, align 8
  %7 = alloca double, align 8
  %8 = bitcast double* %3 to i8*
  call void @llvm.lifetime.start.p0i8(i64 8, i8* nonnull %8) #4
  store double 0.000000e+00, double* %3, align 8, !tbaa !5
  %9 = bitcast double* %4 to i8*
  call void @llvm.lifetime.start.p0i8(i64 8, i8* nonnull %9) #4
  store double 0.000000e+00, double* %4, align 8, !tbaa !5
  %10 = bitcast double* %5 to i8*
  call void @llvm.lifetime.start.p0i8(i64 8, i8* nonnull %10) #4
  store double 0.000000e+00, double* %5, align 8, !tbaa !5
  %11 = bitcast double* %6 to i8*
  call void @llvm.lifetime.start.p0i8(i64 8, i8* nonnull %11) #4
  store double 0.000000e+00, double* %6, align 8, !tbaa !5
  %12 = bitcast double* %7 to i8*
  call void @llvm.lifetime.start.p0i8(i64 8, i8* nonnull %12) #4
  store double 0.000000e+00, double* %7, align 8, !tbaa !5
  %13 = call i32 (i8*, ...) @__isoc99_scanf(i8* getelementptr inbounds ([4 x i8], [4 x i8]* @.str, i64 0, i64 0), double* nonnull %3)
  %14 = call i32 (i8*, ...) @__isoc99_scanf(i8* getelementptr inbounds ([4 x i8], [4 x i8]* @.str, i64 0, i64 0), double* nonnull %4)
  %15 = call i32 (i8*, ...) @__isoc99_scanf(i8* getelementptr inbounds ([4 x i8], [4 x i8]* @.str, i64 0, i64 0), double* nonnull %5)
  %16 = call i32 (i8*, ...) @__isoc99_scanf(i8* getelementptr inbounds ([4 x i8], [4 x i8]* @.str, i64 0, i64 0), double* nonnull %6)
  %17 = call i32 (i8*, ...) @__isoc99_scanf(i8* getelementptr inbounds ([4 x i8], [4 x i8]* @.str, i64 0, i64 0), double* nonnull %7)
  %18 = load double, double* %3, align 8, !tbaa !5
  %19 = load double, double* %4, align 8, !tbaa !5
  %20 = fadd double %18, %19
  %21 = load double, double* %5, align 8, !tbaa !5
  %22 = fadd double %20, %21
  %23 = load double, double* %6, align 8, !tbaa !5
  %24 = fadd double %22, %23
  %25 = fmul double %24, 5.000000e-01
  %26 = load double, double* %7, align 8, !tbaa !5
  %27 = fdiv double %26, 3.600000e+02
  %28 = fmul double %27, 1.000000e+02
  %29 = call double @cos(double %28) #4
  %30 = load double, double* %3, align 8, !tbaa !5
  %31 = fsub double %25, %30
  %32 = load double, double* %4, align 8, !tbaa !5
  %33 = fsub double %25, %32
  %34 = fmul double %31, %33
  %35 = load double, double* %5, align 8, !tbaa !5
  %36 = fsub double %25, %35
  %37 = fmul double %34, %36
  %38 = load double, double* %6, align 8, !tbaa !5
  %39 = fsub double %25, %38
  %40 = fmul double %37, %39
  %41 = fmul double %30, %32
  %42 = fmul double %41, %35
  %43 = fmul double %42, %38
  %44 = fmul double %29, %43
  %45 = fmul double %29, %44
  %46 = fsub double %40, %45
  %47 = call double @sqrt(double %46) #4
  %48 = load double, double* %3, align 8, !tbaa !5
  %49 = fsub double %25, %48
  %50 = load double, double* %4, align 8, !tbaa !5
  %51 = fsub double %25, %50
  %52 = fmul double %49, %51
  %53 = load double, double* %5, align 8, !tbaa !5
  %54 = fsub double %25, %53
  %55 = fmul double %52, %54
  %56 = load double, double* %6, align 8, !tbaa !5
  %57 = fsub double %25, %56
  %58 = fmul double %55, %57
  %59 = fcmp olt double %58, 0.000000e+00
  br i1 %59, label %60, label %62

60:                                               ; preds = %2
  %61 = call i32 (i8*, ...) @printf(i8* nonnull dereferenceable(1) getelementptr inbounds ([14 x i8], [14 x i8]* @.str.1, i64 0, i64 0))
  br label %64

62:                                               ; preds = %2
  %63 = call i32 (i8*, ...) @printf(i8* nonnull dereferenceable(1) getelementptr inbounds ([5 x i8], [5 x i8]* @.str.2, i64 0, i64 0), double %47)
  br label %64

64:                                               ; preds = %62, %60
  call void @llvm.lifetime.end.p0i8(i64 8, i8* nonnull %12) #4
  call void @llvm.lifetime.end.p0i8(i64 8, i8* nonnull %11) #4
  call void @llvm.lifetime.end.p0i8(i64 8, i8* nonnull %10) #4
  call void @llvm.lifetime.end.p0i8(i64 8, i8* nonnull %9) #4
  call void @llvm.lifetime.end.p0i8(i64 8, i8* nonnull %8) #4
  ret i32 0
}

; Function Attrs: argmemonly mustprogress nofree nosync nounwind willreturn
declare void @llvm.lifetime.start.p0i8(i64 immarg, i8* nocapture) #1

; Function Attrs: nofree nounwind
declare noundef i32 @__isoc99_scanf(i8* nocapture noundef readonly, ...) local_unnamed_addr #2

; Function Attrs: mustprogress nofree nounwind willreturn
declare double @cos(double) local_unnamed_addr #3

; Function Attrs: mustprogress nofree nounwind willreturn
declare double @sqrt(double) local_unnamed_addr #3

; Function Attrs: nofree nounwind
declare noundef i32 @printf(i8* nocapture noundef readonly, ...) local_unnamed_addr #2

; Function Attrs: argmemonly mustprogress nofree nosync nounwind willreturn
declare void @llvm.lifetime.end.p0i8(i64 immarg, i8* nocapture) #1


!llvm.module.flags = !{!0, !1, !2, !3}
!llvm.ident = !{!4}

!0 = !{i32 1, !"wchar_size", i32 4}
!1 = !{i32 7, !"PIC Level", i32 2}
!2 = !{i32 7, !"PIE Level", i32 2}
!3 = !{i32 7, !"uwtable", i32 1}
!4 = !{!"clang version 13.0.0"}
!5 = !{!6, !6, i64 0}
!6 = !{!"double", !7, i64 0}
!7 = !{!"omnipotent char", !8, i64 0}
!8 = !{!"Simple C/C++ TBAA"}
